target datalayout = "e-m:e-p270:32:32-p271:32:32-p272:64:64-i64:64-f80:128-n8:16:32:64-S128"
target triple = "x86_64-pc-linux-gnu"

%struct.student = type { [20 x i8], i32, i32, i8, i8, i32, i32 }

@.str = private unnamed_addr constant [3 x i8] c"%d\00", align 1
@.str.1 = private unnamed_addr constant [18 x i8] c"%s %d %d %c %c %d\00", align 1
@stu = common dso_local global [101 x %struct.student] zeroinitializer, align 16
@.str.2 = private unnamed_addr constant [10 x i8] c"%s\0A%d\0A%d\0A\00", align 1

; Function Attrs: noinline nounwind uwtable
define dso_local i32 @main() #0 {
  %1 = alloca i32, align 4
  %2 = alloca i32, align 4
  %3 = alloca i32, align 4
  %4 = alloca i32, align 4
  %5 = alloca i32, align 4
  store i32 0, i32* %1, align 4
  store i32 0, i32* %4, align 4
  %6 = call i32 (i8*, ...) @__isoc99_scanf(i8* getelementptr inbounds ([3 x i8], [3 x i8]* @.str, i64 0, i64 0), i32* %2)
  store i32 0, i32* %3, align 4
  br label %7

7:                                                ; preds = %142, %0
  %8 = load i32, i32* %3, align 4
  %9 = load i32, i32* %2, align 4
  %10 = icmp slt i32 %8, %9
  br i1 %10, label %11, label %145

11:                                               ; preds = %7
  %12 = load i32, i32* %3, align 4
  %13 = sext i32 %12 to i64
  %14 = getelementptr inbounds [101 x %struct.student], [101 x %struct.student]* @stu, i64 0, i64 %13
  %15 = getelementptr inbounds %struct.student, %struct.student* %14, i32 0, i32 0
  %16 = getelementptr inbounds [20 x i8], [20 x i8]* %15, i64 0, i64 0
  %17 = load i32, i32* %3, align 4
  %18 = sext i32 %17 to i64
  %19 = getelementptr inbounds [101 x %struct.student], [101 x %struct.student]* @stu, i64 0, i64 %18
  %20 = getelementptr inbounds %struct.student, %struct.student* %19, i32 0, i32 1
  %21 = load i32, i32* %3, align 4
  %22 = sext i32 %21 to i64
  %23 = getelementptr inbounds [101 x %struct.student], [101 x %struct.student]* @stu, i64 0, i64 %22
  %24 = getelementptr inbounds %struct.student, %struct.student* %23, i32 0, i32 2
  %25 = load i32, i32* %3, align 4
  %26 = sext i32 %25 to i64
  %27 = getelementptr inbounds [101 x %struct.student], [101 x %struct.student]* @stu, i64 0, i64 %26
  %28 = getelementptr inbounds %struct.student, %struct.student* %27, i32 0, i32 3
  %29 = load i32, i32* %3, align 4
  %30 = sext i32 %29 to i64
  %31 = getelementptr inbounds [101 x %struct.student], [101 x %struct.student]* @stu, i64 0, i64 %30
  %32 = getelementptr inbounds %struct.student, %struct.student* %31, i32 0, i32 4
  %33 = load i32, i32* %3, align 4
  %34 = sext i32 %33 to i64
  %35 = getelementptr inbounds [101 x %struct.student], [101 x %struct.student]* @stu, i64 0, i64 %34
  %36 = getelementptr inbounds %struct.student, %struct.student* %35, i32 0, i32 5
  %37 = call i32 (i8*, ...) @__isoc99_scanf(i8* getelementptr inbounds ([18 x i8], [18 x i8]* @.str.1, i64 0, i64 0), i8* %16, i32* %20, i32* %24, i8* %28, i8* %32, i32* %36)
  %38 = load i32, i32* %3, align 4
  %39 = sext i32 %38 to i64
  %40 = getelementptr inbounds [101 x %struct.student], [101 x %struct.student]* @stu, i64 0, i64 %39
  %41 = getelementptr inbounds %struct.student, %struct.student* %40, i32 0, i32 6
  store i32 0, i32* %41, align 4
  %42 = load i32, i32* %3, align 4
  %43 = sext i32 %42 to i64
  %44 = getelementptr inbounds [101 x %struct.student], [101 x %struct.student]* @stu, i64 0, i64 %43
  %45 = getelementptr inbounds %struct.student, %struct.student* %44, i32 0, i32 1
  %46 = load i32, i32* %45, align 4
  %47 = icmp sgt i32 %46, 80
  br i1 %47, label %48, label %62

48:                                               ; preds = %11
  %49 = load i32, i32* %3, align 4
  %50 = sext i32 %49 to i64
  %51 = getelementptr inbounds [101 x %struct.student], [101 x %struct.student]* @stu, i64 0, i64 %50
  %52 = getelementptr inbounds %struct.student, %struct.student* %51, i32 0, i32 5
  %53 = load i32, i32* %52, align 8
  %54 = icmp sgt i32 %53, 0
  br i1 %54, label %55, label %62

55:                                               ; preds = %48
  %56 = load i32, i32* %3, align 4
  %57 = sext i32 %56 to i64
  %58 = getelementptr inbounds [101 x %struct.student], [101 x %struct.student]* @stu, i64 0, i64 %57
  %59 = getelementptr inbounds %struct.student, %struct.student* %58, i32 0, i32 6
  %60 = load i32, i32* %59, align 4
  %61 = add nsw i32 %60, 8000
  store i32 %61, i32* %59, align 4
  br label %62

62:                                               ; preds = %55, %48, %11
  %63 = load i32, i32* %3, align 4
  %64 = sext i32 %63 to i64
  %65 = getelementptr inbounds [101 x %struct.student], [101 x %struct.student]* @stu, i64 0, i64 %64
  %66 = getelementptr inbounds %struct.student, %struct.student* %65, i32 0, i32 1
  %67 = load i32, i32* %66, align 4
  %68 = icmp sgt i32 %67, 85
  br i1 %68, label %69, label %83

69:                                               ; preds = %62
  %70 = load i32, i32* %3, align 4
  %71 = sext i32 %70 to i64
  %72 = getelementptr inbounds [101 x %struct.student], [101 x %struct.student]* @stu, i64 0, i64 %71
  %73 = getelementptr inbounds %struct.student, %struct.student* %72, i32 0, i32 2
  %74 = load i32, i32* %73, align 8
  %75 = icmp sgt i32 %74, 80
  br i1 %75, label %76, label %83

76:                                               ; preds = %69
  %77 = load i32, i32* %3, align 4
  %78 = sext i32 %77 to i64
  %79 = getelementptr inbounds [101 x %struct.student], [101 x %struct.student]* @stu, i64 0, i64 %78
  %80 = getelementptr inbounds %struct.student, %struct.student* %79, i32 0, i32 6
  %81 = load i32, i32* %80, align 4
  %82 = add nsw i32 %81, 4000
  store i32 %82, i32* %80, align 4
  br label %83

83:                                               ; preds = %76, %69, %62
  %84 = load i32, i32* %3, align 4
  %85 = sext i32 %84 to i64
  %86 = getelementptr inbounds [101 x %struct.student], [101 x %struct.student]* @stu, i64 0, i64 %85
  %87 = getelementptr inbounds %struct.student, %struct.student* %86, i32 0, i32 1
  %88 = load i32, i32* %87, align 4
  %89 = icmp sgt i32 %88, 90
  br i1 %89, label %90, label %97

90:                                               ; preds = %83
  %91 = load i32, i32* %3, align 4
  %92 = sext i32 %91 to i64
  %93 = getelementptr inbounds [101 x %struct.student], [101 x %struct.student]* @stu, i64 0, i64 %92
  %94 = getelementptr inbounds %struct.student, %struct.student* %93, i32 0, i32 6
  %95 = load i32, i32* %94, align 4
  %96 = add nsw i32 %95, 2000
  store i32 %96, i32* %94, align 4
  br label %97

97:                                               ; preds = %90, %83
  %98 = load i32, i32* %3, align 4
  %99 = sext i32 %98 to i64
  %100 = getelementptr inbounds [101 x %struct.student], [101 x %struct.student]* @stu, i64 0, i64 %99
  %101 = getelementptr inbounds %struct.student, %struct.student* %100, i32 0, i32 4
  %102 = load i8, i8* %101, align 1
  %103 = sext i8 %102 to i32
  %104 = icmp eq i32 %103, 89
  br i1 %104, label %105, label %119

105:                                              ; preds = %97
  %106 = load i32, i32* %3, align 4
  %107 = sext i32 %106 to i64
  %108 = getelementptr inbounds [101 x %struct.student], [101 x %struct.student]* @stu, i64 0, i64 %107
  %109 = getelementptr inbounds %struct.student, %struct.student* %108, i32 0, i32 1
  %110 = load i32, i32* %109, align 4
  %111 = icmp sgt i32 %110, 85
  br i1 %111, label %112, label %119

112:                                              ; preds = %105
  %113 = load i32, i32* %3, align 4
  %114 = sext i32 %113 to i64
  %115 = getelementptr inbounds [101 x %struct.student], [101 x %struct.student]* @stu, i64 0, i64 %114
  %116 = getelementptr inbounds %struct.student, %struct.student* %115, i32 0, i32 6
  %117 = load i32, i32* %116, align 4
  %118 = add nsw i32 %117, 1000
  store i32 %118, i32* %116, align 4
  br label %119

119:                                              ; preds = %112, %105, %97
  %120 = load i32, i32* %3, align 4
  %121 = sext i32 %120 to i64
  %122 = getelementptr inbounds [101 x %struct.student], [101 x %struct.student]* @stu, i64 0, i64 %121
  %123 = getelementptr inbounds %struct.student, %struct.student* %122, i32 0, i32 2
  %124 = load i32, i32* %123, align 8
  %125 = icmp sgt i32 %124, 80
  br i1 %125, label %126, label %141

126:                                              ; preds = %119
  %127 = load i32, i32* %3, align 4
  %128 = sext i32 %127 to i64
  %129 = getelementptr inbounds [101 x %struct.student], [101 x %struct.student]* @stu, i64 0, i64 %128
  %130 = getelementptr inbounds %struct.student, %struct.student* %129, i32 0, i32 3
  %131 = load i8, i8* %130, align 4
  %132 = sext i8 %131 to i32
  %133 = icmp eq i32 %132, 89
  br i1 %133, label %134, label %141

134:                                              ; preds = %126
  %135 = load i32, i32* %3, align 4
  %136 = sext i32 %135 to i64
  %137 = getelementptr inbounds [101 x %struct.student], [101 x %struct.student]* @stu, i64 0, i64 %136
  %138 = getelementptr inbounds %struct.student, %struct.student* %137, i32 0, i32 6
  %139 = load i32, i32* %138, align 4
  %140 = add nsw i32 %139, 850
  store i32 %140, i32* %138, align 4
  br label %141

141:                                              ; preds = %134, %126, %119
  br label %142

142:                                              ; preds = %141
  %143 = load i32, i32* %3, align 4
  %144 = add nsw i32 %143, 1
  store i32 %144, i32* %3, align 4
  br label %7

145:                                              ; preds = %7
  store i32 0, i32* %5, align 4
  br label %146

146:                                              ; preds = %158, %145
  %147 = load i32, i32* %5, align 4
  %148 = load i32, i32* %2, align 4
  %149 = icmp slt i32 %147, %148
  br i1 %149, label %150, label %161

150:                                              ; preds = %146
  %151 = load i32, i32* %4, align 4
  %152 = load i32, i32* %5, align 4
  %153 = sext i32 %152 to i64
  %154 = getelementptr inbounds [101 x %struct.student], [101 x %struct.student]* @stu, i64 0, i64 %153
  %155 = getelementptr inbounds %struct.student, %struct.student* %154, i32 0, i32 6
  %156 = load i32, i32* %155, align 4
  %157 = add nsw i32 %151, %156
  store i32 %157, i32* %4, align 4
  br label %158

158:                                              ; preds = %150
  %159 = load i32, i32* %5, align 4
  %160 = add nsw i32 %159, 1
  store i32 %160, i32* %5, align 4
  br label %146

161:                                              ; preds = %146
  call void @llvm.memcpy.p0i8.p0i8.i64(i8* align 16 getelementptr inbounds ([101 x %struct.student], [101 x %struct.student]* @stu, i64 0, i64 100, i32 0, i32 0), i8* align 16 getelementptr inbounds ([101 x %struct.student], [101 x %struct.student]* @stu, i32 0, i32 0, i32 0, i32 0), i64 40, i1 false)
  store i32 1, i32* %5, align 4
  br label %162

162:                                              ; preds = %180, %161
  %163 = load i32, i32* %5, align 4
  %164 = load i32, i32* %2, align 4
  %165 = icmp slt i32 %163, %164
  br i1 %165, label %166, label %183

166:                                              ; preds = %162
  %167 = load i32, i32* %5, align 4
  %168 = sext i32 %167 to i64
  %169 = getelementptr inbounds [101 x %struct.student], [101 x %struct.student]* @stu, i64 0, i64 %168
  %170 = getelementptr inbounds %struct.student, %struct.student* %169, i32 0, i32 6
  %171 = load i32, i32* %170, align 4
  %172 = load i32, i32* getelementptr inbounds ([101 x %struct.student], [101 x %struct.student]* @stu, i64 0, i64 100, i32 6), align 4
  %173 = icmp sgt i32 %171, %172
  br i1 %173, label %174, label %179

174:                                              ; preds = %166
  %175 = load i32, i32* %5, align 4
  %176 = sext i32 %175 to i64
  %177 = getelementptr inbounds [101 x %struct.student], [101 x %struct.student]* @stu, i64 0, i64 %176
  %178 = bitcast %struct.student* %177 to i8*
  call void @llvm.memcpy.p0i8.p0i8.i64(i8* align 16 getelementptr inbounds ([101 x %struct.student], [101 x %struct.student]* @stu, i64 0, i64 100, i32 0, i32 0), i8* align 8 %178, i64 40, i1 false)
  br label %179

179:                                              ; preds = %174, %166
  br label %180

180:                                              ; preds = %179
  %181 = load i32, i32* %5, align 4
  %182 = add nsw i32 %181, 1
  store i32 %182, i32* %5, align 4
  br label %162

183:                                              ; preds = %162
  %184 = load i32, i32* getelementptr inbounds ([101 x %struct.student], [101 x %struct.student]* @stu, i64 0, i64 100, i32 6), align 4
  %185 = load i32, i32* %4, align 4
  %186 = call i32 (i8*, ...) @printf(i8* getelementptr inbounds ([10 x i8], [10 x i8]* @.str.2, i64 0, i64 0), i8* getelementptr inbounds ([101 x %struct.student], [101 x %struct.student]* @stu, i64 0, i64 100, i32 0, i64 0), i32 %184, i32 %185)
  %187 = load i32, i32* %1, align 4
  ret i32 %187
}